target datalayout = "e-m:e-p270:32:32-p271:32:32-p272:64:64-i64:64-i128:128-f80:128-n8:16:32:64-S128"
target triple = "x86_64-pc-linux-gnu"

%struct.RangeVar = type { i32, ptr, ptr, ptr, i8, i8, ptr, i32 }
%struct.ReindexParams = type { i32, i32 }
%struct.ReindexIndexCallbackState = type { %struct.ReindexParams, i32 }

@.str.1 = private unnamed_addr constant [12 x i8] c"indexcmds.c\00", align 1
@.str.85 = private unnamed_addr constant [21 x i8] c"\22%s\22 is not an index\00", align 1
@__func__.RangeVarCallbackForReindexIndex = private unnamed_addr constant [32 x i8] c"RangeVarCallbackForReindexIndex\00", align 1

; Function Attrs: nounwind uwtable
define internal void @RangeVarCallbackForReindexIndex(ptr noundef %0, i32 noundef %1, i32 noundef %2, ptr noundef %3) #0 {
  %5 = alloca ptr, align 8
  %6 = alloca i32, align 4
  %7 = alloca i32, align 4
  %8 = alloca ptr, align 8
  %9 = alloca i8, align 1
  %10 = alloca ptr, align 8
  %11 = alloca i32, align 4
  %12 = alloca i32, align 4
  %13 = alloca i32, align 4
  %14 = alloca i32, align 4
  store ptr %0, ptr %5, align 8
  store i32 %1, ptr %6, align 4
  store i32 %2, ptr %7, align 4
  store ptr %3, ptr %8, align 8
  call void @llvm.lifetime.start.p0(i64 1, ptr %9) #10
  call void @llvm.lifetime.start.p0(i64 8, ptr %10) #10
  %15 = load ptr, ptr %8, align 8
  store ptr %15, ptr %10, align 8
  call void @llvm.lifetime.start.p0(i64 4, ptr %11) #10
  call void @llvm.lifetime.start.p0(i64 4, ptr %12) #10
  %16 = load ptr, ptr %10, align 8
  %17 = getelementptr inbounds nuw %struct.ReindexIndexCallbackState, ptr %16, i32 0, i32 0
  %18 = getelementptr inbounds nuw %struct.ReindexParams, ptr %17, i32 0, i32 0
  %19 = load i32, ptr %18, align 4
  %20 = and i32 %19, 8
  %21 = icmp ne i32 %20, 0
  %22 = select i1 %21, i32 4, i32 5
  store i32 %22, ptr %11, align 4
  %23 = load i32, ptr %6, align 4
  %24 = load i32, ptr %7, align 4
  %25 = icmp ne i32 %23, %24
  br i1 %25, label %26, label %36

26:                                               ; preds = %4
  %27 = load i32, ptr %7, align 4
  %28 = icmp ne i32 %27, 0
  br i1 %28, label %29, label %36

29:                                               ; preds = %26
  %30 = load ptr, ptr %10, align 8
  %31 = getelementptr inbounds nuw %struct.ReindexIndexCallbackState, ptr %30, i32 0, i32 1
  %32 = load i32, ptr %31, align 4
  %33 = load i32, ptr %11, align 4
  call void @UnlockRelationOid(i32 noundef %32, i32 noundef %33)
  %34 = load ptr, ptr %10, align 8
  %35 = getelementptr inbounds nuw %struct.ReindexIndexCallbackState, ptr %34, i32 0, i32 1
  store i32 0, ptr %35, align 4
  br label %36

36:                                               ; preds = %29, %26, %4
  %37 = load i32, ptr %6, align 4
  %38 = icmp ne i32 %37, 0
  br i1 %38, label %40, label %39

39:                                               ; preds = %36
  store i32 1, ptr %13, align 4
  br label %101

40:                                               ; preds = %36
  %41 = load i32, ptr %6, align 4
  %42 = call signext i8 @get_rel_relkind(i32 noundef %41)
  store i8 %42, ptr %9, align 1
  %43 = load i8, ptr %9, align 1
  %44 = icmp ne i8 %43, 0
  br i1 %44, label %46, label %45

45:                                               ; preds = %40
  store i32 1, ptr %13, align 4
  br label %101

46:                                               ; preds = %40
  %47 = load i8, ptr %9, align 1
  %48 = sext i8 %47 to i32
  %49 = icmp ne i32 %48, 105
  br i1 %49, label %50, label %69

50:                                               ; preds = %46
  %51 = load i8, ptr %9, align 1
  %52 = sext i8 %51 to i32
  %53 = icmp ne i32 %52, 73
  br i1 %53, label %54, label %69

54:                                               ; preds = %50
  br label %55

55:                                               ; preds = %54
  br i1 true, label %56, label %58

56:                                               ; preds = %55
  %57 = call zeroext i1 @errstart_cold(i32 noundef 21, ptr noundef null) #11
  br i1 %57, label %60, label %66

58:                                               ; preds = %55
  %59 = call zeroext i1 @errstart(i32 noundef 21, ptr noundef null)
  br i1 %59, label %60, label %66

60:                                               ; preds = %58, %56
  %61 = call i32 @errcode(i32 noundef 151027844)
  %62 = load ptr, ptr %5, align 8
  %63 = getelementptr inbounds nuw %struct.RangeVar, ptr %62, i32 0, i32 3
  %64 = load ptr, ptr %63, align 8
  %65 = call i32 (ptr, ...) @errmsg(ptr noundef @.str.85, ptr noundef %64)
  call void @errfinish(ptr noundef @.str.1, i32 noundef 2988, ptr noundef @__func__.RangeVarCallbackForReindexIndex)
  br label %66

66:                                               ; preds = %60, %58, %56
  unreachable

67:                                               ; No predecessors!
  br label %68

68:                                               ; preds = %67
  br label %69

69:                                               ; preds = %68, %50, %46
  %70 = load i32, ptr %6, align 4
  %71 = call i32 @IndexGetRelation(i32 noundef %70, i1 noundef zeroext true)
  store i32 %71, ptr %12, align 4
  %72 = load i32, ptr %12, align 4
  %73 = icmp ne i32 %72, 0
  br i1 %73, label %74, label %86

74:                                               ; preds = %69
  call void @llvm.lifetime.start.p0(i64 4, ptr %14) #10
  %75 = load i32, ptr %12, align 4
  %76 = call i32 @GetUserId()
  %77 = call i32 @pg_class_aclcheck(i32 noundef %75, i32 noundef %76, i64 noundef 16384)
  store i32 %77, ptr %14, align 4
  %78 = load i32, ptr %14, align 4
  %79 = icmp ne i32 %78, 0
  br i1 %79, label %80, label %85

80:                                               ; preds = %74
  %81 = load i32, ptr %14, align 4
  %82 = load ptr, ptr %5, align 8
  %83 = getelementptr inbounds nuw %struct.RangeVar, ptr %82, i32 0, i32 3
  %84 = load ptr, ptr %83, align 8
  call void @aclcheck_error(i32 noundef %81, i32 noundef 20, ptr noundef %84)
  br label %85

85:                                               ; preds = %80, %74
  call void @llvm.lifetime.end.p0(i64 4, ptr %14) #10
  br label %86

86:                                               ; preds = %85, %69
  %87 = load i32, ptr %6, align 4
  %88 = load i32, ptr %7, align 4
  %89 = icmp ne i32 %87, %88
  br i1 %89, label %90, label %100

90:                                               ; preds = %86
  %91 = load i32, ptr %12, align 4
  %92 = icmp ne i32 %91, 0
  br i1 %92, label %93, label %99

93:                                               ; preds = %90
  %94 = load i32, ptr %12, align 4
  %95 = load i32, ptr %11, align 4
  call void @LockRelationOid(i32 noundef %94, i32 noundef %95)
  %96 = load i32, ptr %12, align 4
  %97 = load ptr, ptr %10, align 8
  %98 = getelementptr inbounds nuw %struct.ReindexIndexCallbackState, ptr %97, i32 0, i32 1
  store i32 %96, ptr %98, align 4
  br label %99

99:                                               ; preds = %93, %90
  br label %100

100:                                              ; preds = %99, %86
  store i32 0, ptr %13, align 4
  br label %101

101:                                              ; preds = %100, %45, %39
  call void @llvm.lifetime.end.p0(i64 4, ptr %12) #10
  call void @llvm.lifetime.end.p0(i64 4, ptr %11) #10
  call void @llvm.lifetime.end.p0(i64 8, ptr %10) #10
  call void @llvm.lifetime.end.p0(i64 1, ptr %9) #10
  %102 = load i32, ptr %13, align 4
  switch i32 %102, label %104 [
    i32 0, label %103
    i32 1, label %103
  ]

103:                                              ; preds = %101, %101
  ret void

104:                                              ; preds = %101
  unreachable
}