; Function Attrs: nounwind uwtable
define internal void @RangeVarCallbackForReindexIndex(ptr noundef readonly captures(none) %0, i32 noundef %1, i32 noundef %2, ptr noundef captures(none) %3) #0 {
  %5 = load i32, ptr %3, align 4
  %6 = and i32 %5, 8
  %.not = icmp eq i32 %6, 0
  %7 = select i1 %.not, i32 5, i32 4
  %8 = icmp ne i32 %1, %2
  %9 = icmp ne i32 %2, 0
  %or.cond = and i1 %8, %9
  br i1 %or.cond, label %10, label %13

10:                                               ; preds = %4
  %11 = getelementptr inbounds nuw i8, ptr %3, i64 8
  %12 = load i32, ptr %11, align 4
  tail call void @UnlockRelationOid(i32 noundef %12, i32 noundef %7) #11
  store i32 0, ptr %11, align 4
  br label %13

13:                                               ; preds = %10, %4
  %.not35 = icmp eq i32 %1, 0
  br i1 %.not35, label %.thread, label %14

14:                                               ; preds = %13
  %15 = tail call signext i8 @get_rel_relkind(i32 noundef %1) #11
  %.not36 = icmp eq i8 %15, 0
  br i1 %.not36, label %.thread, label %16

16:                                               ; preds = %14
  %17 = and i8 %15, -33
  %or.cond4.not = icmp eq i8 %17, 73
  br i1 %or.cond4.not, label %24, label %18

18:                                               ; preds = %16
  %19 = tail call zeroext i1 @errstart_cold(i32 noundef 21, ptr noundef null) #12
  tail call void @llvm.assume(i1 %19)
  %20 = tail call i32 @errcode(i32 noundef 151027844) #11
  %21 = getelementptr inbounds nuw i8, ptr %0, i64 24
  %22 = load ptr, ptr %21, align 8
  %23 = tail call i32 (ptr, ...) @errmsg(ptr noundef nonnull @.str.85, ptr noundef %22) #11
  tail call void @errfinish(ptr noundef nonnull @.str.1, i32 noundef 2988, ptr noundef nonnull @__func__.RangeVarCallbackForReindexIndex) #11
  unreachable

24:                                               ; preds = %16
  %25 = tail call i32 @IndexGetRelation(i32 noundef %1, i1 noundef zeroext true) #11
  %.not39 = icmp eq i32 %25, 0
  br i1 %.not39, label %.thread, label %26

26:                                               ; preds = %24
  %27 = tail call i32 @GetUserId() #11
  %28 = tail call i32 @pg_class_aclcheck(i32 noundef %25, i32 noundef %27, i64 noundef 16384) #11
  %.not37 = icmp eq i32 %28, 0
  br i1 %.not37, label %32, label %29

29:                                               ; preds = %26
  %30 = getelementptr inbounds nuw i8, ptr %0, i64 24
  %31 = load ptr, ptr %30, align 8
  tail call void @aclcheck_error(i32 noundef %28, i32 noundef 20, ptr noundef %31) #11
  br label %32

32:                                               ; preds = %26, %29
  br i1 %8, label %33, label %.thread

33:                                               ; preds = %32
  tail call void @LockRelationOid(i32 noundef %25, i32 noundef %7) #11
  %34 = getelementptr inbounds nuw i8, ptr %3, i64 8
  store i32 %25, ptr %34, align 4
  br label %.thread

.thread:                                          ; preds = %24, %32, %33, %14, %13
  ret void
}